; Function Attrs: mustprogress nounwind uwtable
define hidden void @_ZNK5clang7targets17SystemZTargetInfo16fillValidCPUListERN4llvm15SmallVectorImplINS2_9StringRefEEE(ptr nocapture nonnull readnone align 8 %0, ptr noundef nonnull align 8 dereferenceable(16) %1) unnamed_addr #4 align 2 {
  %3 = getelementptr inbounds i8, ptr %1, i64 16
  br label %4

4:                                                ; preds = %2, %_ZN4llvm23SmallVectorTemplateBaseINS_9StringRefELb1EE9push_backES1_.exit
  %.0.idx6 = phi i64 [ 0, %2 ], [ %.0.add, %_ZN4llvm23SmallVectorTemplateBaseINS_9StringRefELb1EE9push_backES1_.exit ]
  %.0.ptr = getelementptr inbounds i8, ptr @_ZL12ISARevisions, i64 %.0.idx6
  %.sroa.0.0.copyload = load ptr, ptr %.0.ptr, align 8
  %.sroa.2.0..sroa_idx = getelementptr inbounds i8, ptr %.0.ptr, i64 8
  %.sroa.2.0.copyload = load i64, ptr %.sroa.2.0..sroa_idx, align 8
  %5 = tail call noundef i64 @_ZNK4llvm15SmallVectorBaseIjE4sizeEv(ptr noundef nonnull align 8 dereferenceable(16) %1) #12
  %6 = add i64 %5, 1
  %7 = tail call noundef i64 @_ZNK4llvm15SmallVectorBaseIjE8capacityEv(ptr noundef nonnull align 8 dereferenceable(16) %1) #12
  %.not.i.i.i = icmp ugt i64 %6, %7
  br i1 %.not.i.i.i, label %8, label %_ZN4llvm23SmallVectorTemplateBaseINS_9StringRefELb1EE9push_backES1_.exit

8:                                                ; preds = %4
  tail call void @_ZN4llvm15SmallVectorBaseIjE8grow_podEPvmm(ptr noundef nonnull align 8 dereferenceable(16) %1, ptr noundef nonnull %3, i64 noundef %6, i64 noundef 16) #12
  br label %_ZN4llvm23SmallVectorTemplateBaseINS_9StringRefELb1EE9push_backES1_.exit

_ZN4llvm23SmallVectorTemplateBaseINS_9StringRefELb1EE9push_backES1_.exit: ; preds = %4, %8
  %9 = load ptr, ptr %1, align 8
  %10 = tail call noundef i64 @_ZNK4llvm15SmallVectorBaseIjE4sizeEv(ptr noundef nonnull align 8 dereferenceable(16) %1) #12
  %11 = getelementptr inbounds %"class.llvm::StringRef", ptr %9, i64 %10
  store ptr %.sroa.0.0.copyload, ptr %11, align 1
  %.sroa.2.0..sroa_idx.i = getelementptr inbounds i8, ptr %11, i64 8
  store i64 %.sroa.2.0.copyload, ptr %.sroa.2.0..sroa_idx.i, align 1
  %12 = tail call noundef i64 @_ZNK4llvm15SmallVectorBaseIjE4sizeEv(ptr noundef nonnull align 8 dereferenceable(16) %1) #12
  %13 = add i64 %12, 1
  tail call void @_ZN4llvm15SmallVectorBaseIjE8set_sizeEm(ptr noundef nonnull align 8 dereferenceable(16) %1, i64 noundef %13) #12
  %.0.add = add nuw nsw i64 %.0.idx6, 24
  %.not = icmp eq i64 %.0.add, 336
  br i1 %.not, label %14, label %4

14:                                               ; preds = %_ZN4llvm23SmallVectorTemplateBaseINS_9StringRefELb1EE9push_backES1_.exit
  ret void
}